target datalayout = "e-m:e-p270:32:32-p271:32:32-p272:64:64-i64:64-i128:128-f80:128-n8:16:32:64-S128"
target triple = "x86_64-pc-linux-gnu"

@free_impl = internal global ptr @CRYPTO_free, align 8

; Function Attrs: nounwind uwtable
define void @CRYPTO_free(ptr noundef %0, ptr noundef %1, i32 noundef %2) #0 {
  %4 = alloca ptr, align 8
  %5 = alloca ptr, align 8
  %6 = alloca i32, align 4
  store ptr %0, ptr %4, align 8, !tbaa !3
  store ptr %1, ptr %5, align 8, !tbaa !11
  store i32 %2, ptr %6, align 4, !tbaa !7
  %7 = load ptr, ptr @free_impl, align 8, !tbaa !3
  %8 = icmp ne ptr %7, @CRYPTO_free
  br i1 %8, label %9, label %14

9:                                                ; preds = %3
  %10 = load ptr, ptr @free_impl, align 8, !tbaa !3
  %11 = load ptr, ptr %4, align 8, !tbaa !3
  %12 = load ptr, ptr %5, align 8, !tbaa !11
  %13 = load i32, ptr %6, align 4, !tbaa !7
  call void %10(ptr noundef %11, ptr noundef %12, i32 noundef %13)
  br label %16

14:                                               ; preds = %3
  %15 = load ptr, ptr %4, align 8, !tbaa !3
  call void @free(ptr noundef %15) #8
  br label %16

16:                                               ; preds = %14, %9
  ret void
}

; Function Attrs: nounwind uwtable
define void @CRYPTO_clear_free(ptr noundef %0, i64 noundef %1, ptr noundef %2, i32 noundef %3) #0 {
  %5 = alloca ptr, align 8
  %6 = alloca i64, align 8
  %7 = alloca ptr, align 8
  %8 = alloca i32, align 4
  store ptr %0, ptr %5, align 8, !tbaa !3
  store i64 %1, ptr %6, align 8, !tbaa !9
  store ptr %2, ptr %7, align 8, !tbaa !11
  store i32 %3, ptr %8, align 4, !tbaa !7
  %9 = load ptr, ptr %5, align 8, !tbaa !3
  %10 = icmp eq ptr %9, null
  br i1 %10, label %11, label %12

11:                                               ; preds = %4
  br label %22

12:                                               ; preds = %4
  %13 = load i64, ptr %6, align 8, !tbaa !9
  %14 = icmp ne i64 %13, 0
  br i1 %14, label %15, label %18

15:                                               ; preds = %12
  %16 = load ptr, ptr %5, align 8, !tbaa !3
  %17 = load i64, ptr %6, align 8, !tbaa !9
  call void @OPENSSL_cleanse(ptr noundef %16, i64 noundef %17)
  br label %18

18:                                               ; preds = %15, %12
  %19 = load ptr, ptr %5, align 8, !tbaa !3
  %20 = load ptr, ptr %7, align 8, !tbaa !11
  %21 = load i32, ptr %8, align 4, !tbaa !7
  call void @CRYPTO_free(ptr noundef %19, ptr noundef %20, i32 noundef %21)
  br label %22

22:                                               ; preds = %18, %11
  ret void
}