; Function Attrs: nounwind uwtable
define void @CRYPTO_clear_free(ptr noundef %0, i64 noundef %1, ptr noundef %2, i32 noundef %3) local_unnamed_addr #2 {
  %5 = icmp eq ptr %0, null
  br i1 %5, label %CRYPTO_free.exit, label %6

6:                                                ; preds = %4
  %.not = icmp eq i64 %1, 0
  br i1 %.not, label %8, label %7

7:                                                ; preds = %6
  tail call void @OPENSSL_cleanse(ptr noundef nonnull %0, i64 noundef %1) #11
  br label %8

8:                                                ; preds = %7, %6
  %9 = load ptr, ptr @free_impl, align 8, !tbaa !3
  %.not.i = icmp eq ptr %9, @CRYPTO_free
  br i1 %.not.i, label %11, label %10

10:                                               ; preds = %8
  tail call void %9(ptr noundef nonnull %0, ptr noundef %2, i32 noundef %3) #11
  br label %CRYPTO_free.exit

11:                                               ; preds = %8
  tail call void @free(ptr noundef nonnull %0) #11
  br label %CRYPTO_free.exit

CRYPTO_free.exit:                                 ; preds = %11, %10, %4
  ret void
}